(lp0
(lp1
(lp2
V\u041a\u043e\u043c\u043c\u0443\u043d\u044b
p3
aS''
p4
aa(lp5
V\u0443\u043b.
p6
ag4
aa(lp7
V50
p8
ag4
aaa(lp9
(lp10
V\u041a\u0443\u0434\u0440\u043e\u0432\u043e
p11
ag4
aa(lp12
V\u0434\u0435\u0440.
p13
ag4
aa(lp14
V,
p15
ag4
aa(lp16
V\u041e\u0431\u043b\u0430\u0441\u0442\u043d\u0430\u044f
p17
ag4
aaa(lp18
(lp19
V\u041f\u0435\u0442\u0435\u0440\u0433\u043e\u0444\u0441\u043a\u043e\u0435
p20
ag4
aa(lp21
V\u0448.
p22
ag4
aa(lp23
V17
p24
ag4
aa(lp25
V\u043a.
p26
ag4
aa(lp27
V1
p28
ag4
aaa(lp29
(lp30
V\u0420\u044b\u0431\u0430\u0446\u043a\u0438\u0439
p31
ag4
aa(lp32
V\u043f\u0440.
p33
ag4
aaa(lp34
(lp35
V\u041a\u0443\u0434\u0440\u043e\u0432\u043e,
p36
ag4
aa(lp37
V\u0426\u0435\u043d\u0442\u0440\u0430\u043b\u044c\u043d\u0430\u044f
p38
ag4
aa(lp39
V54
p40
ag4
aaa(lp41
(lp42
V\u0422\u043e\u0441\u043d\u0435\u043d\u0441\u043a\u0438\u0439,
p43
ag4
aa(lp44
V\u041a\u043e\u0440\u043a\u0438\u043d\u043e
p45
ag4
aa(lp46
V\u0434
p47
ag4
aa(lp48
V\u0434.
p49
ag4
aa(lp50
V5
p51
ag4
aaa(lp52
(lp53
V\u041e\u0440\u043b\u043e\u0432\u0441\u043a\u0430\u044f
p54
ag4
aa(lp55
V\u0443\u043b.
p56
ag4
aa(lp57
V2
p58
ag4
aaa(lp59
(lp60
V\u041a\u0440\u043e\u043d\u0448\u0442\u0430\u0434\u0442,
p61
ag4
aa(lp62
V\u0412\u0441.
p63
ag4
aa(lp64
V\u0412\u0438\u0448\u043d.
p65
ag4
aa(lp66
V20
p67
ag4
aa(lp68
V/
p69
ag4
aa(lp70
V20
p71
ag4
aaa(lp72
(lp73
V\u0413\u0440\u043e\u0442\u0430
p74
ag4
aa(lp75
V\u0443\u043b.
p76
ag4
aa(lp77
g28
ag4
aa(lp78
g69
ag4
aa(lp79
V3
p80
ag4
aaa(lp81
(lp82
V\u041d\u0430\u0440\u043e\u0434\u043d\u043e\u0433\u043e
p83
ag4
aa(lp84
V\u041e\u043f\u043e\u043b\u0447\u0435\u043d\u0438\u044f
p85
ag4
aa(lp86
V149
p87
ag4
aaa(lp88
(lp89
V\u0412\u0441\u0435\u0432\u043e\u043b\u043e\u0436\u0441\u043a\u0438\u0439,
p90
ag4
aa(lp91
V\u0421\u0432\u0435\u0440\u0434\u043b\u043e\u0432\u0430
p92
ag4
aa(lp93
V\u0438\u043c.,
p94
ag4
aa(lp95
g28
ag4
aa(lp96
V\u041c\u0438\u043a\u0440\u043e\u0440\u0430\u0439\u043e\u043d
p97
ag4
aaa(lp98
(lp99
V10
p100
ag4
aa(lp101
V\u0421\u043e\u0432\u0435\u0442\u0441\u043a\u0430\u044f
p102
ag4
aa(lp103
V\u0443\u043b.
p104
ag4
aa(lp105
V16
p106
ag4
aaa(lp107
(lp108
V\u0421\u043e\u0432\u0435\u0442\u0441\u043a\u0438\u0439
p109
ag4
aa(lp110
V\u043f\u0440.
p111
ag4
aa(lp112
g15
ag4
aa(lp113
V\u0443\u0447.
p114
ag4
aa(lp115
V33
p116
ag4
aaa(lp117
(lp118
V\u0416\u0443\u043a\u043e\u0432\u0441\u043a\u043e\u0433\u043e
p119
ag4
aa(lp120
V\u0443\u043b.
p121
ag4
aa(lp122
V15
p123
ag4
aaa(lp124
(lp125
V\u0412\u0441\u0435\u0432.
p126
ag4
aa(lp127
g15
ag4
aa(lp128
V\u042f\u043d\u0438\u043d\u043e-
p129
ag4
aa(lp130
g28
ag4
aa(lp131
g15
ag4
aa(lp132
V\u0412\u0441\u0435\u0432\u043e\u043b.
p133
ag4
aaa(lp134
(lp135
V\u0412\u0441\u0435\u0432.
p136
ag4
aa(lp137
g15
ag4
aa(lp138
V\u0411\u0443\u0433\u0440\u044b,
p139
ag4
aa(lp140
V\u0428\u043a\u043e\u043b\u044c\u043d\u0430\u044f
p141
ag4
aaa(lp142
(lp143
V\u041c\u0443\u0440\u0438\u043d\u0441\u043a\u0430\u044f
p144
ag4
aa(lp145
V\u0434\u043e\u0440.
p146
ag4
aa(lp147
V84
p148
ag4
aaa(lp149
(lp150
V\u041c\u043e\u0440\u0441\u043a\u0430\u044f
p151
ag4
aa(lp152
V\u043d\u0430\u0431.
p153
ag4
aaa(lp154
(lp155
V\u041a\u0430\u0445\u043e\u0432\u0441\u043a\u043e\u0433\u043e
p156
ag4
aa(lp157
V\u043f\u0435\u0440.
p158
ag4
aa(lp159
V8
p160
ag4
aaa(lp161
(lp162
V\u041d\u0438\u0436\u043d\u0435-\u041a\u0430\u043c\u0435\u043d\u0441\u043a\u0430\u044f
p163
ag4
aa(lp164
V\u0443\u043b.
p165
ag4
aa(lp166
V7
p167
ag4
aa(lp168
g69
ag4
aa(lp169
g28
ag4
aaa(lp170
(lp171
g28
ag4
aa(lp172
V\u041d\u0438\u043a\u0438\u0442\u0438\u043d\u0441\u043a\u0430\u044f
p173
ag4
aa(lp174
V\u0443\u043b.
p175
ag4
aa(lp176
V30
p177
ag4
aaa(lp178
(lp179
V\u0426\u0435\u043d\u0442\u0440\u0430\u043b\u044c\u043d\u0430\u044f
p180
ag4
aa(lp181
V\u0443\u043b.
p182
ag4
aa(lp183
V14
p184
ag4
aa(lp185
V\u043a.
p186
ag4
aa(lp187
g58
ag4
aaa(lp188
(lp189
V\u0428\u043b\u0438\u0441\u0441\u0435\u043b\u044c\u0431\u0443\u0440\u0433\u0441\u043a\u0438\u0439
p190
ag4
aa(lp191
V\u043f\u0440.
p192
ag4
aa(lp193
g51
ag4
aa(lp194
V\u043a.
p195
ag4
aa(lp196
g58
ag4
aaa(lp197
(lp198
V\u0412\u0441\u0435\u0432\u043e\u043b\u043e\u0436\u0441\u043a\u0438\u0439
p199
ag4
aa(lp200
V\u0440,
p201
ag4
aa(lp202
V\u041a\u043e\u043b\u0442\u0443\u0448\u0438
p203
ag4
aa(lp204
V\u043f
p205
ag4
aaa(lp206
(lp207
V\u0412\u0441\u0435\u0432\u043e\u043b\u043e\u0436\u0441\u043a\u0438\u0439,
p208
ag4
aa(lp209
V\u041d\u043e\u0432\u043e\u0435
p210
ag4
aa(lp211
V\u0414\u0435\u0432\u044f\u0442\u043a\u0438\u043d\u043e,
p212
ag4
aa(lp213
V\u0410\u0440\u0441\u0435\u043d\u0430\u043b\u044c\u043d\u0430\u044f
p214
ag4
aaa(lp215
(lp216
V\u0421\u0442\u0440\u0435\u043b\u044c\u043d\u0430,
p217
ag4
aa(lp218
V\u0421.
p219
ag4
aa(lp220
V-\u041f\u0435\u0442\u0435\u0440\u0431.
p221
ag4
aa(lp222
V\u0448.
p223
ag4
aa(lp224
V98
p225
ag4
aaa(lp226
(lp227
V\u0416\u0443\u043a\u043e\u0432\u0441\u043a\u043e\u0433\u043e
p228
ag4
aa(lp229
V\u0443\u043b.
p230
ag4
aa(lp231
V57
p232
ag4
aaa(lp233
(lp234
V\u0422\u0443\u0440\u0438\u0441\u0442\u0441\u043a\u0430\u044f
p235
ag4
aa(lp236
V\u0443\u043b.
p237
ag4
aa(lp238
V10
p239
ag4
aa(lp240
V\u043a.
p241
ag4
aa(lp242
g28
ag4
aaa(lp243
(lp244
V\u0428\u043b\u0438\u0441\u0441\u0435\u043b\u044c\u0431\u0443\u0440\u0433\u0441\u043a\u0438\u0439
p245
ag4
aa(lp246
V\u043f\u0440.
p247
ag4
aa(lp248
V36
p249
ag4
aa(lp250
V\u043a.
p251
ag4
aa(lp252
g58
ag4
aaa(lp253
(lp254
V\u041e\u0440\u0434\u0436\u043e\u043d\u0438\u043a\u0438\u0434\u0437\u0435
p255
ag4
aa(lp256
V\u0443\u043b.
p257
ag4
aa(lp258
V13
p259
ag4
aaa(lp260
(lp261
V\u041c.
p262
ag4
aa(lp263
V\u0417\u0430\u0445\u0430\u0440\u043e\u0432\u0430
p264
ag4
aa(lp265
V\u0443\u043b.
p266
ag4
aa(lp267
V56
p268
ag4
aaa(lp269
(lp270
V\u0412\u0441\u0435\u0432\u043e\u043b\u043e\u0436\u0441\u043a\u0438\u0439,
p271
ag4
aa(lp272
V\u0412\u0441\u0435\u0432\u043e\u043b\u043e\u0436\u0441\u043a
p273
ag4
aa(lp274
V\u0433
p275
ag4
aa(lp276
V\u0443\u043b
p277
ag4
aa(lp278
V\u0412\u043e\u043a\u043a\u0430,
p279
ag4
aa(lp280
V\u0434.
p281
ag4
aa(lp282
g160
ag4
aaa(lp283
(lp284
V\u0421\u0442\u0440\u0435\u043b\u044c\u043d\u0430,
p285
ag4
aa(lp286
V\u0413\u043e\u0433\u043e\u043b\u044f
p287
ag4
aa(lp288
V\u0443\u043b.
p289
ag4
aa(lp290
V10
p291
ag4
aaa(lp292
(lp293
V\u041f\u0440\u0438\u043c\u043e\u0440\u0441\u043a\u0438\u0439
p294
ag4
aa(lp295
V\u043f\u0440.
p296
ag4
aa(lp297
V52
p298
ag4
aaa(lp299
(lp300
V\u041a\u043e\u0441\u043c\u043e\u043d\u0430\u0432\u0442\u043e\u0432
p301
ag4
aa(lp302
V\u043f\u0440.
p303
ag4
aa(lp304
V65
p305
ag4
aa(lp306
V\u043a.
p307
ag4
aa(lp308
V12
p309
ag4
aaa(lp310
(lp311
V\u041f\u0435\u0442\u0435\u0440\u0433\u043e\u0444,
p312
ag4
aa(lp313
V\u041f\u0430\u0440\u043a\u043e\u0432\u0430\u044f
p314
ag4
aa(lp315
V\u0443\u043b.
p316
ag4
aaa(lp317
(lp318
V\u041a\u0440\u0435\u043c\u0435\u043d\u0447\u0443\u0433\u0441\u043a\u0430\u044f
p319
ag4
aa(lp320
V\u0443\u043b.
p321
ag4
aaa(lp322
(lp323
V\u041a\u0418\u041c\u0430
p324
ag4
aa(lp325
V\u043f\u0440.
p326
ag4
aa(lp327
V28
p328
ag4
aaa(lp329
(lp330
V\u0421\u043e\u043b\u0434\u0430\u0442\u0430
p331
ag4
aa(lp332
V\u041a\u043e\u0440\u0437\u0443\u043d\u0430
p333
ag4
aa(lp334
V\u0443\u043b.
p335
ag4
aa(lp336
g51
ag4
aaa(lp337
(lp338
V\u0420\u043e\u043f\u0448\u0438\u043d\u0441\u043a\u043e\u0435
p339
ag4
aa(lp340
V\u0448.
p341
ag4
aa(lp342
g58
ag4
aa(lp343
V-
p344
ag4
aa(lp345
V4
p346
ag4
aaa(lp347
(lp348
V\u0412\u043e\u043b\u043e\u0441\u043e\u0432\u0441\u043a\u0438\u0439,
p349
ag4
aa(lp350
V\u0418\u0437\u0432\u0430\u0440\u0430
p351
ag4
aaa(lp352
(lp353
V\u0417\u0430\u0441\u0442\u0430\u0432\u0441\u043a\u0430\u044f
p354
ag4
aa(lp355
V\u0443\u043b.
p356
ag4
aa(lp357
V46
p358
ag4
aa(lp359
V\u043a.
p360
ag4
aa(lp361
g28
ag4
aaa(lp362
(lp363
V\u041a\u0440\u0430\u0441\u043d\u043e\u043f\u0443\u0442\u0438\u043b\u043e\u0432\u0441\u043a\u0430\u044f
p364
ag4
aa(lp365
V\u0443\u043b.
p366
ag4
aa(lp367
V125
p368
ag4
aaa(lp369
(lp370
V\u0417\u0430\u0441\u0442\u0430\u0432\u0441\u043a\u0430\u044f
p371
ag4
aa(lp372
V\u0443\u043b.
p373
ag4
aa(lp374
V46
p375
ag4
aa(lp376
V\u043a.
p377
ag4
aa(lp378
g28
ag4
aaa(lp379
(lp380
V\u0412\u0441\u0435\u0432,
p381
ag4
aa(lp382
V\u0412\u043e\u0440\u043e\u043d\u0446\u043e\u0432\u0441\u043a\u0438\u0439
p383
ag4
aa(lp384
V\u0431\u0443\u043b.
p385
ag4
aaa(lp386
(lp387
V\u0421\u0435\u0441\u0442\u0440\u043e\u0440\u0435\u0446\u043a,
p388
ag4
aa(lp389
V\u0422\u043e\u043a\u0430\u0440\u0435\u0432\u0430
p390
ag4
aa(lp391
V\u0443\u043b.
p392
ag4
aa(lp393
V24
p394
ag4
aaa(lp395
(lp396
V\u0411\u0435\u0440\u0435\u0433\u043e\u0432\u0430\u044f
p397
ag4
aa(lp398
V\u0443\u043b.
p399
ag4
aaa(lp400
(lp401
V\u0412\u0441\u0435\u0432\u043e\u043b\u043e\u0436\u0441\u043a\u0438\u0439,
p402
ag4
aa(lp403
V\u041a\u0443\u0434\u0440\u043e\u0432\u043e,
p404
ag4
aa(lp405
V\u0415\u0432\u0440\u043e\u043f\u0435\u0439\u0441\u043a\u0438\u0439
p406
ag4
aa(lp407
V14
p408
ag4
aa(lp409
V\u043a.
p410
ag4
aa(lp411
g28
ag4
aaa(lp412
(lp413
V\u0412\u0441\u0435\u0432\u043e\u043b\u043e\u0436\u0441\u043a\u0438\u0439,
p414
ag4
aa(lp415
V\u0412\u0441\u0435\u0432\u043e\u043b\u043e\u0436\u0441\u043a,
p416
ag4
aa(lp417
V\u041f\u043b\u043e\u0442\u043a\u0438\u043d\u0430
p418
ag4
aa(lp419
V\u0443\u043b.
p420
ag4
aaa(lp421
(lp422
V\u041f\u0443\u0448\u043a\u0438\u043d,
p423
ag4
aa(lp424
V\u041c\u0430\u043b\u0438\u043d\u043e\u0432\u0441\u043a\u0430\u044f
p425
ag4
aa(lp426
V\u0443\u043b.
p427
ag4
aa(lp428
g160
ag4
aaa(lp429
(lp430
V\u041f\u0438\u0441\u043a\u0430\u0440\u0435\u0432\u0441\u043a\u0438\u0439
p431
ag4
aa(lp432
V\u043f\u0440.
p433
ag4
aa(lp434
g80
ag4
aaa(lp435
(lp436
V\u0418\u0440\u0438\u043d\u043e\u0432\u0441\u043a\u0438\u0439
p437
ag4
aa(lp438
V\u043f\u0440.
p439
ag4
aa(lp440
V36
p441
ag4
aa(lp442
V\u043a.
p443
ag4
aa(lp444
g28
ag4
aaa(lp445
(lp446
V\u041c.
p447
ag4
aa(lp448
V\u0417\u0430\u0445\u0430\u0440\u043e\u0432\u0430
p449
ag4
aa(lp450
V\u0443\u043b.
p451
ag4
aa(lp452
V60
p453
ag4
aaa(lp454
(lp455
V\u0413\u0440\u043e\u0442\u0430
p456
ag4
aa(lp457
V\u0443\u043b.
p458
ag4
aa(lp459
g28
ag4
aa(lp460
g69
ag4
aa(lp461
g80
ag4
aaa(lp462
(lp463
V\u041c\u043e\u0441\u043a\u043e\u0432\u0441\u043a\u043e\u0435
p464
ag4
aa(lp465
V\u0448.
p466
ag4
aaa(lp467
(lp468
V\u0412\u0441\u0435\u0432\u043e\u043b\u043e\u0436\u0441\u043a\u0438\u0439,
p469
ag4
aa(lp470
V\u041d\u043e\u0432\u043e\u0435
p471
ag4
aa(lp472
V\u0414\u0435\u0432\u044f\u0442\u043a\u0438\u043d\u043e,
p473
ag4
aa(lp474
V\u041e\u0437\u0435\u0440\u043d\u0430\u044f
p475
ag4
aa(lp476
V6
p477
ag4
aaa(lp478
(lp479
V\u0421\u043e\u0432\u0435\u0442\u0441\u043a\u0438\u0439
p480
ag4
aa(lp481
V\u043f\u0440.
p482
ag4
aa(lp483
g15
ag4
aa(lp484
V\u0443\u0447.
p485
ag4
aa(lp486
V33
p487
ag4
aaa(lp488
(lp489
V\u0412\u0441\u0435\u0432.
p490
ag4
aa(lp491
g15
ag4
aa(lp492
V\u0414\u0435\u0432\u044f\u0442\u043a\u0438\u043d\u043e
p493
ag4
aaa(lp494
(lp495
V\u0422\u0430\u043c\u0431\u0430\u0441\u043e\u0432\u0430
p496
ag4
aa(lp497
V\u0443\u043b.
p498
ag4
aa(lp499
V31
p500
ag4
aa(lp501
V\u043a.
p502
ag4
aa(lp503
g58
ag4
aaa(lp504
(lp505
V\u0412\u0438\u0442\u0435\u0431\u0441\u043a\u0438\u0439
p506
ag4
aa(lp507
V\u043f\u0440.
p508
ag4
aa(lp509
V21
p510
ag4
aa(lp511
V\u043a.
p512
ag4
aa(lp513
g58
ag4
aaa(lp514
(lp515
V\u041a\u0430\u0442\u0435\u0440\u043d\u0438\u043a\u043e\u0432
p516
ag4
aa(lp517
V\u0443\u043b.
p518
ag4
aaa(lp519
(lp520
V\u0421\u0435\u0441\u0442\u0440\u043e\u0440\u0435\u0446\u043a,
p521
ag4
aa(lp522
V\u0414\u0443\u0431\u043a\u043e\u0432\u0441\u043a\u043e\u0435
p523
ag4
aa(lp524
V\u0448.
p525
ag4
aaa(lp526
(lp527
V\u041c\u0443\u0440\u0438\u043d\u043e
p528
ag4
aaa(lp529
(lp530
V\u041a\u0443\u0437\u043d\u0435\u0446\u043e\u0432\u0430
p531
ag4
aa(lp532
V\u043f\u0440.
p533
ag4
aa(lp534
V13
p535
ag4
aaa(lp536
(lp537
V\u041a\u0440\u0435\u043c\u0435\u043d\u0447\u0443\u0433\u0441\u043a\u0430\u044f
p538
ag4
aa(lp539
V\u0443\u043b.
p540
ag4
aaa(lp541
(lp542
V\u041c\u0443\u0440\u0438\u043d\u0441\u043a\u0430\u044f
p543
ag4
aa(lp544
V\u0434\u043e\u0440.
p545
ag4
aa(lp546
g80
ag4
aaa(lp547
(lp548
V\u0422\u0443\u0440\u0438\u0441\u0442\u0441\u043a\u0430\u044f
p549
ag4
aa(lp550
V\u0443\u043b.
p551
ag4
aa(lp552
V24
p553
ag4
aa(lp554
g69
ag4
aa(lp555
V42
p556
ag4
aaa(lp557
(lp558
V\u0420\u0443\u0441\u0430\u043d\u043e\u0432\u0441\u043a\u0430\u044f
p559
ag4
aa(lp560
V\u0443\u043b.
p561
ag4
aa(lp562
V17
p563
ag4
aaa(lp564
(lp565
V\u041b\u0438\u0433\u043e\u0432\u0441\u043a\u0438\u0439
p566
ag4
aa(lp567
V\u043f\u0440.
p568
ag4
aa(lp569
V123
p570
ag4
aaa(lp571
(lp572
V\u0421\u0443\u0437\u0434\u0430\u043b\u044c\u0441\u043a\u0438\u0439
p573
ag4
aa(lp574
V\u043f\u0440.
p575
ag4
aa(lp576
V107
p577
ag4
aaa(lp578
(lp579
V\u0422\u0435\u043b\u044c\u043c\u0430\u043d\u0430
p580
ag4
aa(lp581
V\u0443\u043b.
p582
ag4
aa(lp583
V32
p584
ag4
aa(lp585
V\u043a.
p586
ag4
aa(lp587
g28
ag4
aaa(lp588
(lp589
V\u041d\u0430\u043b\u0438\u0447\u043d\u0430\u044f
p590
ag4
aa(lp591
V\u0443\u043b.
p592
ag4
aa(lp593
V25
p594
ag4
aaa(lp595
(lp596
V\u041f\u0438\u0441\u043a\u0430\u0440\u0435\u0432\u0441\u043a\u0438\u0439
p597
ag4
aa(lp598
V\u043f\u0440.
p599
ag4
aa(lp600
g80
ag4
aaa(lp601
(lp602
V\u042e\u0440\u0438\u044f
p603
ag4
aa(lp604
V\u0413\u0430\u0433\u0430\u0440\u0438\u043d\u0430
p605
ag4
aa(lp606
V\u043f\u0440.
p607
ag4
aa(lp608
V20
p609
ag4
aa(lp610
V\u043a.
p611
ag4
aa(lp612
g80
ag4
aaa(lp613
(lp614
V\u041a\u043e\u043b\u043e\u043c\u044f\u0436\u0441\u043a\u0438\u0439
p615
ag4
aa(lp616
V\u043f\u0440.
p617
ag4
aa(lp618
V26
p619
ag4
aaa(lp620
(lp621
V\u041a\u0440\u0430\u0441\u043d\u043e\u0434\u043e\u043d\u0441\u043a\u0430\u044f
p622
ag4
aa(lp623
V\u0443\u043b.
p624
ag4
aa(lp625
V31
p626
ag4
aaa(lp627
(lp628
V\u041b\u0435\u043d\u0438
p629
ag4
aa(lp630
V\u0413\u043e\u043b\u0438\u043a\u043e\u0432\u0430
p631
ag4
aa(lp632
V\u0443\u043b.
p633
ag4
aa(lp634
V19
p635
ag4
aaa(lp636
(lp637
V\u041c\u0443\u0440\u0438\u043d\u043e,
p638
ag4
aa(lp639
V\u041e\u0431\u043e\u0440\u043e\u043d\u043d\u0430\u044f
p640
ag4
aa(lp641
V31
p642
ag4
aa(lp643
g69
ag4
aa(lp644
g28
ag4
aaa(lp645
(lp646
V\u041e\u043a\u0442\u044f\u0431\u0440\u044c\u0441\u043a\u0430\u044f
p647
ag4
aa(lp648
V\u043d\u0430\u0431.
p649
ag4
aa(lp650
V100
p651
ag4
aa(lp652
V\u043a.
p653
ag4
aa(lp654
g28
ag4
aaa(lp655
(lp656
V\u0420\u0435\u043f\u0438\u0449\u0435\u0432\u0430
p657
ag4
aa(lp658
V\u0443\u043b.
p659
ag4
aa(lp660
V10
p661
ag4
aa(lp662
V\u043a.
p663
ag4
aa(lp664
g58
ag4
aaa(lp665
(lp666
V\u041a\u043e\u043d\u0434\u0440\u0430\u0442\u044c\u0435\u0432\u0441\u043a\u0438\u0439
p667
ag4
aa(lp668
V\u043f\u0440.
p669
ag4
aa(lp670
V77
p671
ag4
aa(lp672
V\u043a.
p673
ag4
aa(lp674
g80
ag4
aaa(lp675
(lp676
V\u041a\u043e\u043d\u0434\u0440\u0430\u0442\u044c\u0435\u0432\u0441\u043a\u0438\u0439
p677
ag4
aa(lp678
V\u043f\u0440.
p679
ag4
aaa(lp680
(lp681
V\u041e\u0441\u0438\u043f\u0435\u043d\u043a\u043e
p682
ag4
aa(lp683
V\u0443\u043b.
p684
ag4
aa(lp685
g346
ag4
aa(lp686
V\u043a.
p687
ag4
aa(lp688
g28
ag4
aaa(lp689
(lp690
V\u041c\u0435\u0434\u0438\u043a\u043e\u0432
p691
ag4
aa(lp692
V\u043f\u0440.
p693
ag4
aa(lp694
V10
p695
ag4
aaa(lp696
(lp697
V\u041a\u043e\u043b\u043f\u0438\u043d\u043e,
p698
ag4
aa(lp699
V\u0418\u0436\u043e\u0440\u0441\u043a\u043e\u0433\u043e
p700
ag4
aa(lp701
V\u0411\u0430\u0442.
p702
ag4
aa(lp703
V\u0443\u043b.
p704
ag4
aaa(lp705
(lp706
V\u041a\u043e\u043c\u0435\u043d\u0434\u0430\u043d\u0442\u0441\u043a\u0438\u0439
p707
ag4
aa(lp708
V\u043f\u0440.
p709
ag4
aa(lp710
V32
p711
ag4
aa(lp712
V\u043a.
p713
ag4
aa(lp714
g28
ag4
aaa(lp715
(lp716
V\u0410\u043a.
p717
ag4
aa(lp718
V\u0411\u0430\u0439\u043a\u043e\u0432\u0430
p719
ag4
aa(lp720
V\u0443\u043b.
p721
ag4
aa(lp722
V13
p723
ag4
aa(lp724
g69
ag4
aa(lp725
g58
ag4
aaa(lp726
(lp727
V\u041f\u0440\u043e\u0441\u0432\u0435\u0449\u0435\u043d\u0438\u044f
p728
ag4
aa(lp729
V\u043f\u0440.
p730
ag4
aa(lp731
V24
p732
ag4
aa(lp733
g69
ag4
aa(lp734
g58
ag4
aaa(lp735
(lp736
V\u0412\u0441\u0435\u0432\u043e\u043b\u043e\u0436\u0441\u043a\u0438\u0439,
p737
ag4
aa(lp738
V\u042f\u043d\u0438\u043d\u043e-
p739
ag4
aa(lp740
g28
ag4
aa(lp741
g15
ag4
aa(lp742
V\u0428\u043e\u0441\u0441\u0435\u0439\u043d\u0430\u044f
p743
ag4
aa(lp744
V\u0443\u043b.
p745
ag4
aa(lp746
g80
ag4
aaa(lp747
(lp748
V\u0428\u0443\u0448\u0430\u0440\u044b
p749
ag4
aa(lp750
V61
p751
ag4
aaa(lp752
(lp753
V\u0414\u0443\u043d\u0430\u0439\u0441\u043a\u0438\u0439
p754
ag4
aa(lp755
V\u043f\u0440.
p756
ag4
aa(lp757
V14
p758
ag4
aaa(lp759
(lp760
V\u0421\u043b\u0430\u0432\u044f\u043d\u043a\u0430,
p761
ag4
aa(lp762
V\u0420\u043e\u0441\u0442\u043e\u0432\u0441\u043a\u0430\u044f
p763
ag4
aa(lp764
V17
p765
ag4
aa(lp766
g69
ag4
aa(lp767
g346
ag4
aaa(lp768
(lp769
V\u041c.
p770
ag4
aa(lp771
V\u0411\u043b\u044e\u0445\u0435\u0440\u0430
p772
ag4
aa(lp773
V\u043f\u0440.
p774
ag4
aa(lp775
g160
ag4
aa(lp776
V\u043a.
p777
ag4
aa(lp778
g28
ag4
aaa(lp779
(lp780
V\u041c\u0443\u0440\u0438\u043d\u043e
p781
ag4
aaa(lp782
(lp783
V\u0412\u0441\u0435\u0432\u043e\u043b\u043e\u0436\u0441\u043a\u0438\u0439,
p784
ag4
aa(lp785
V\u041a\u0443\u0434\u0440\u043e\u0432\u043e,
p786
ag4
aa(lp787
V\u0415\u0432\u0440\u043e\u043f\u0435\u0439\u0441\u043a\u0438\u0439
p788
ag4
aa(lp789
V11
p790
ag4
aaa(lp791
(lp792
V\u041c\u043e\u0441\u043a\u043e\u0432\u0441\u043a\u0438\u0439
p793
ag4
aa(lp794
V\u043f\u0440.
p795
ag4
aa(lp796
V197
p797
ag4
aaa(lp798
(lp799
V\u041b\u0443\u043d\u0430\u0447\u0430\u0440\u0441\u043a\u043e\u0433\u043e
p800
ag4
aa(lp801
V\u043f\u0440.
p802
ag4
aa(lp803
V39
p804
ag4
aa(lp805
V\u043a.
p806
ag4
aa(lp807
g28
ag4
aaa(lp808
(lp809
V\u0421\u0435\u0441\u0442\u0440\u043e\u0440\u0435\u0446\u043a,
p810
ag4
aa(lp811
V\u0412\u0441.
p812
ag4
aa(lp813
V\u0411\u043e\u0431\u0440\u043e\u0432\u0430
p814
ag4
aa(lp815
V30
p816
ag4
aaa(lp817
(lp818
V\u041b\u0435\u043d\u0438\u043d\u0441\u043a\u0438\u0439
p819
ag4
aa(lp820
V\u043f\u0440.
p821
ag4
aa(lp822
V51
p823
ag4
aaa(lp824
(lp825
V\u0410\u043b\u0435\u043a\u0441\u0430\u043d\u0434\u0440\u043e\u0432\u0441\u043a.
p826
ag4
aa(lp827
V\u0424\u0435\u0440\u043c\u044b
p828
ag4
aa(lp829
g160
ag4
aaa.